target datalayout = "e-m:e-p270:32:32-p271:32:32-p272:64:64-i64:64-i128:128-f80:128-n8:16:32:64-S128"
target triple = "x86_64-pc-linux-gnu"

%struct.MT = type { ptr, i32, [624 x i32] }

; Function Attrs: nounwind uwtable
define internal zeroext i8 @MT_getnext(ptr noundef %0) #0 {
  %2 = alloca ptr, align 8
  %3 = alloca i32, align 4
  %4 = alloca ptr, align 8
  %5 = alloca i32, align 4
  store ptr %0, ptr %2, align 8
  %6 = load ptr, ptr %2, align 8
  %7 = getelementptr inbounds %struct.MT, ptr %6, i32 0, i32 1
  %8 = load i32, ptr %7, align 8
  %9 = add i32 %8, -1
  store i32 %9, ptr %7, align 8
  %10 = icmp ne i32 %9, 0
  br i1 %10, label %147, label %11

11:                                               ; preds = %1
  %12 = load ptr, ptr %2, align 8
  %13 = getelementptr inbounds %struct.MT, ptr %12, i32 0, i32 2
  %14 = getelementptr inbounds [624 x i32], ptr %13, i64 0, i64 0
  store ptr %14, ptr %4, align 8
  %15 = load ptr, ptr %2, align 8
  %16 = getelementptr inbounds %struct.MT, ptr %15, i32 0, i32 1
  store i32 624, ptr %16, align 8
  %17 = load ptr, ptr %4, align 8
  %18 = load ptr, ptr %2, align 8
  %19 = getelementptr inbounds %struct.MT, ptr %18, i32 0, i32 0
  store ptr %17, ptr %19, align 8
  store i32 0, ptr %5, align 4
  br label %20

20:                                               ; preds = %65, %11
  %21 = load i32, ptr %5, align 4
  %22 = icmp ult i32 %21, 227
  br i1 %22, label %23, label %68

23:                                               ; preds = %20
  %24 = load ptr, ptr %4, align 8
  %25 = load i32, ptr %5, align 4
  %26 = zext i32 %25 to i64
  %27 = getelementptr inbounds i32, ptr %24, i64 %26
  %28 = load i32, ptr %27, align 4
  %29 = load ptr, ptr %4, align 8
  %30 = load i32, ptr %5, align 4
  %31 = add i32 %30, 1
  %32 = zext i32 %31 to i64
  %33 = getelementptr inbounds i32, ptr %29, i64 %32
  %34 = load i32, ptr %33, align 4
  %35 = xor i32 %28, %34
  %36 = and i32 %35, 2147483646
  %37 = load ptr, ptr %4, align 8
  %38 = load i32, ptr %5, align 4
  %39 = zext i32 %38 to i64
  %40 = getelementptr inbounds i32, ptr %37, i64 %39
  %41 = load i32, ptr %40, align 4
  %42 = xor i32 %36, %41
  %43 = lshr i32 %42, 1
  %44 = load ptr, ptr %4, align 8
  %45 = load i32, ptr %5, align 4
  %46 = add i32 %45, 1
  %47 = zext i32 %46 to i64
  %48 = getelementptr inbounds i32, ptr %44, i64 %47
  %49 = load i32, ptr %48, align 4
  %50 = and i32 %49, 1
  %51 = sub i32 0, %50
  %52 = and i32 %51, -1727483681
  %53 = xor i32 %43, %52
  %54 = load ptr, ptr %4, align 8
  %55 = load i32, ptr %5, align 4
  %56 = add i32 %55, 397
  %57 = zext i32 %56 to i64
  %58 = getelementptr inbounds i32, ptr %54, i64 %57
  %59 = load i32, ptr %58, align 4
  %60 = xor i32 %53, %59
  %61 = load ptr, ptr %4, align 8
  %62 = load i32, ptr %5, align 4
  %63 = zext i32 %62 to i64
  %64 = getelementptr inbounds i32, ptr %61, i64 %63
  store i32 %60, ptr %64, align 4
  br label %65

65:                                               ; preds = %23
  %66 = load i32, ptr %5, align 4
  %67 = add i32 %66, 1
  store i32 %67, ptr %5, align 4
  br label %20

68:                                               ; preds = %20
  br label %69

69:                                               ; preds = %114, %68
  %70 = load i32, ptr %5, align 4
  %71 = icmp ult i32 %70, 623
  br i1 %71, label %72, label %117

72:                                               ; preds = %69
  %73 = load ptr, ptr %4, align 8
  %74 = load i32, ptr %5, align 4
  %75 = zext i32 %74 to i64
  %76 = getelementptr inbounds i32, ptr %73, i64 %75
  %77 = load i32, ptr %76, align 4
  %78 = load ptr, ptr %4, align 8
  %79 = load i32, ptr %5, align 4
  %80 = add i32 %79, 1
  %81 = zext i32 %80 to i64
  %82 = getelementptr inbounds i32, ptr %78, i64 %81
  %83 = load i32, ptr %82, align 4
  %84 = xor i32 %77, %83
  %85 = and i32 %84, 2147483646
  %86 = load ptr, ptr %4, align 8
  %87 = load i32, ptr %5, align 4
  %88 = zext i32 %87 to i64
  %89 = getelementptr inbounds i32, ptr %86, i64 %88
  %90 = load i32, ptr %89, align 4
  %91 = xor i32 %85, %90
  %92 = lshr i32 %91, 1
  %93 = load ptr, ptr %4, align 8
  %94 = load i32, ptr %5, align 4
  %95 = add i32 %94, 1
  %96 = zext i32 %95 to i64
  %97 = getelementptr inbounds i32, ptr %93, i64 %96
  %98 = load i32, ptr %97, align 4
  %99 = and i32 %98, 1
  %100 = sub i32 0, %99
  %101 = and i32 %100, -1727483681
  %102 = xor i32 %92, %101
  %103 = load ptr, ptr %4, align 8
  %104 = load i32, ptr %5, align 4
  %105 = sub i32 %104, 227
  %106 = zext i32 %105 to i64
  %107 = getelementptr inbounds i32, ptr %103, i64 %106
  %108 = load i32, ptr %107, align 4
  %109 = xor i32 %102, %108
  %110 = load ptr, ptr %4, align 8
  %111 = load i32, ptr %5, align 4
  %112 = zext i32 %111 to i64
  %113 = getelementptr inbounds i32, ptr %110, i64 %112
  store i32 %109, ptr %113, align 4
  br label %114

114:                                              ; preds = %72
  %115 = load i32, ptr %5, align 4
  %116 = add i32 %115, 1
  store i32 %116, ptr %5, align 4
  br label %69

117:                                              ; preds = %69
  %118 = load ptr, ptr %4, align 8
  %119 = getelementptr inbounds i32, ptr %118, i64 623
  %120 = load i32, ptr %119, align 4
  %121 = load ptr, ptr %4, align 8
  %122 = getelementptr inbounds i32, ptr %121, i64 0
  %123 = load i32, ptr %122, align 4
  %124 = xor i32 %120, %123
  %125 = and i32 %124, 2147483646
  %126 = load ptr, ptr %4, align 8
  %127 = getelementptr inbounds i32, ptr %126, i64 623
  %128 = load i32, ptr %127, align 4
  %129 = xor i32 %125, %128
  %130 = lshr i32 %129, 1
  %131 = load ptr, ptr %4, align 8
  %132 = getelementptr inbounds i32, ptr %131, i64 0
  %133 = load i32, ptr %132, align 4
  %134 = and i32 %133, 1
  %135 = sub i32 0, %134
  %136 = and i32 %135, -1727483681
  %137 = xor i32 %130, %136
  %138 = load ptr, ptr %4, align 8
  %139 = load i32, ptr %5, align 4
  %140 = sub i32 %139, 227
  %141 = zext i32 %140 to i64
  %142 = getelementptr inbounds i32, ptr %138, i64 %141
  %143 = load i32, ptr %142, align 4
  %144 = xor i32 %137, %143
  %145 = load ptr, ptr %4, align 8
  %146 = getelementptr inbounds i32, ptr %145, i64 623
  store i32 %144, ptr %146, align 4
  br label %147

147:                                              ; preds = %117, %1
  %148 = load ptr, ptr %2, align 8
  %149 = getelementptr inbounds %struct.MT, ptr %148, i32 0, i32 0
  %150 = load ptr, ptr %149, align 8
  %151 = getelementptr inbounds i32, ptr %150, i32 1
  store ptr %151, ptr %149, align 8
  %152 = load i32, ptr %150, align 4
  store i32 %152, ptr %3, align 4
  %153 = load i32, ptr %3, align 4
  %154 = lshr i32 %153, 11
  %155 = load i32, ptr %3, align 4
  %156 = xor i32 %155, %154
  store i32 %156, ptr %3, align 4
  %157 = load i32, ptr %3, align 4
  %158 = and i32 %157, -12953427
  %159 = shl i32 %158, 7
  %160 = load i32, ptr %3, align 4
  %161 = xor i32 %160, %159
  store i32 %161, ptr %3, align 4
  %162 = load i32, ptr %3, align 4
  %163 = and i32 %162, -8308
  %164 = shl i32 %163, 15
  %165 = load i32, ptr %3, align 4
  %166 = xor i32 %165, %164
  store i32 %166, ptr %3, align 4
  %167 = load i32, ptr %3, align 4
  %168 = lshr i32 %167, 18
  %169 = load i32, ptr %3, align 4
  %170 = xor i32 %169, %168
  store i32 %170, ptr %3, align 4
  %171 = load i32, ptr %3, align 4
  %172 = lshr i32 %171, 1
  %173 = trunc i32 %172 to i8
  ret i8 %173
}

; Function Attrs: nounwind uwtable
define internal void @MT_decrypt(ptr noundef %0, i32 noundef %1, i32 noundef %2) #0 {
  %4 = alloca ptr, align 8
  %5 = alloca i32, align 4
  %6 = alloca i32, align 4
  %7 = alloca %struct.MT, align 8
  %8 = alloca i32, align 4
  %9 = alloca ptr, align 8
  store ptr %0, ptr %4, align 8
  store i32 %1, ptr %5, align 4
  store i32 %2, ptr %6, align 4
  %10 = getelementptr inbounds %struct.MT, ptr %7, i32 0, i32 2
  %11 = getelementptr inbounds [624 x i32], ptr %10, i64 0, i64 0
  store ptr %11, ptr %9, align 8
  %12 = load i32, ptr %6, align 4
  %13 = load ptr, ptr %9, align 8
  store i32 %12, ptr %13, align 4
  store i32 1, ptr %8, align 4
  br label %14

14:                                               ; preds = %39, %3
  %15 = load i32, ptr %8, align 4
  %16 = icmp ult i32 %15, 624
  br i1 %16, label %17, label %42

17:                                               ; preds = %14
  %18 = load i32, ptr %8, align 4
  %19 = load ptr, ptr %9, align 8
  %20 = load i32, ptr %8, align 4
  %21 = sub i32 %20, 1
  %22 = zext i32 %21 to i64
  %23 = getelementptr inbounds i32, ptr %19, i64 %22
  %24 = load i32, ptr %23, align 4
  %25 = lshr i32 %24, 30
  %26 = load ptr, ptr %9, align 8
  %27 = load i32, ptr %8, align 4
  %28 = sub i32 %27, 1
  %29 = zext i32 %28 to i64
  %30 = getelementptr inbounds i32, ptr %26, i64 %29
  %31 = load i32, ptr %30, align 4
  %32 = xor i32 %25, %31
  %33 = mul i32 1812433253, %32
  %34 = add i32 %18, %33
  %35 = load ptr, ptr %9, align 8
  %36 = load i32, ptr %8, align 4
  %37 = zext i32 %36 to i64
  %38 = getelementptr inbounds i32, ptr %35, i64 %37
  store i32 %34, ptr %38, align 4
  br label %39

39:                                               ; preds = %17
  %40 = load i32, ptr %8, align 4
  %41 = add i32 %40, 1
  store i32 %41, ptr %8, align 4
  br label %14

42:                                               ; preds = %14
  %43 = getelementptr inbounds %struct.MT, ptr %7, i32 0, i32 1
  store i32 1, ptr %43, align 8
  %44 = getelementptr inbounds %struct.MT, ptr %7, i32 0, i32 2
  %45 = getelementptr inbounds [624 x i32], ptr %44, i64 0, i64 0
  %46 = getelementptr inbounds %struct.MT, ptr %7, i32 0, i32 0
  store ptr %45, ptr %46, align 8
  br label %47

47:                                               ; preds = %51, %42
  %48 = load i32, ptr %5, align 4
  %49 = add i32 %48, -1
  store i32 %49, ptr %5, align 4
  %50 = icmp ne i32 %48, 0
  br i1 %50, label %51, label %60

51:                                               ; preds = %47
  %52 = call zeroext i8 @MT_getnext(ptr noundef %7)
  %53 = zext i8 %52 to i32
  %54 = load ptr, ptr %4, align 8
  %55 = getelementptr inbounds i8, ptr %54, i32 1
  store ptr %55, ptr %4, align 8
  %56 = load i8, ptr %54, align 1
  %57 = zext i8 %56 to i32
  %58 = xor i32 %57, %53
  %59 = trunc i32 %58 to i8
  store i8 %59, ptr %54, align 1
  br label %47

60:                                               ; preds = %47
  ret void
}