; Function Attrs: nofree norecurse nosync nounwind memory(readwrite, inaccessiblemem: none) uwtable
define internal fastcc void @MT_decrypt(ptr nocapture noundef %0, i32 noundef %1, i32 noundef %2) unnamed_addr #6 {
  %4 = alloca %struct.MT, align 8
  %5 = getelementptr inbounds i8, ptr %4, i64 12
  store i32 %2, ptr %5, align 4
  br label %6

6:                                                ; preds = %3, %6
  %7 = phi i32 [ %2, %3 ], [ %12, %6 ]
  %indvars.iv = phi i64 [ 1, %3 ], [ %indvars.iv.next, %6 ]
  %8 = lshr i32 %7, 30
  %9 = xor i32 %8, %7
  %10 = mul i32 %9, 1812433253
  %11 = trunc nuw nsw i64 %indvars.iv to i32
  %12 = add i32 %10, %11
  %13 = getelementptr inbounds i32, ptr %5, i64 %indvars.iv
  store i32 %12, ptr %13, align 4
  %indvars.iv.next = add nuw nsw i64 %indvars.iv, 1
  %exitcond.not = icmp eq i64 %indvars.iv.next, 624
  br i1 %exitcond.not, label %14, label %6

14:                                               ; preds = %6
  %15 = getelementptr inbounds i8, ptr %4, i64 8
  %.not16 = icmp eq i32 %1, 0
  br i1 %.not16, label %._crit_edge, label %.lr.ph

.lr.ph:                                           ; preds = %14
  %.phi.trans.insert.i = getelementptr inbounds i8, ptr %4, i64 920
  %16 = getelementptr inbounds i8, ptr %4, i64 2504
  %17 = getelementptr inbounds i8, ptr %4, i64 1596
  br label %18

18:                                               ; preds = %.lr.ph, %MT_getnext.exit
  %.pre.i = phi i32 [ %2, %.lr.ph ], [ %.pre.i21, %MT_getnext.exit ]
  %.018 = phi ptr [ %0, %.lr.ph ], [ %83, %MT_getnext.exit ]
  %.01317 = phi i32 [ %1, %.lr.ph ], [ %21, %MT_getnext.exit ]
  %19 = phi i32 [ 1, %.lr.ph ], [ %67, %MT_getnext.exit ]
  %20 = phi ptr [ %5, %.lr.ph ], [ %69, %MT_getnext.exit ]
  %21 = add i32 %.01317, -1
  %22 = add i32 %19, -1
  store i32 %22, ptr %15, align 8
  %.not.i = icmp eq i32 %22, 0
  br i1 %.not.i, label %23, label %MT_getnext.exit

23:                                               ; preds = %18
  store i32 624, ptr %15, align 8
  store ptr %5, ptr %4, align 8
  br label %24

.lr.ph.preheader.i:                               ; preds = %24
  %.pre57.i = load i32, ptr %.phi.trans.insert.i, align 8
  br label %.lr.ph.i

24:                                               ; preds = %24, %23
  %25 = phi i32 [ %.pre.i, %23 ], [ %28, %24 ]
  %indvars.iv.i = phi i64 [ 0, %23 ], [ %indvars.iv.next.i, %24 ]
  %26 = getelementptr inbounds i32, ptr %5, i64 %indvars.iv.i
  %indvars.iv.next.i = add nuw nsw i64 %indvars.iv.i, 1
  %27 = getelementptr inbounds i32, ptr %5, i64 %indvars.iv.next.i
  %28 = load i32, ptr %27, align 4
  %29 = and i32 %28, 2147483646
  %30 = and i32 %25, -2147483648
  %31 = or disjoint i32 %29, %30
  %32 = lshr exact i32 %31, 1
  %33 = and i32 %28, 1
  %34 = icmp eq i32 %33, 0
  %35 = select i1 %34, i32 0, i32 -1727483681
  %36 = getelementptr i8, ptr %26, i64 1588
  %37 = load i32, ptr %36, align 4
  %38 = xor i32 %35, %37
  %39 = xor i32 %38, %32
  store i32 %39, ptr %26, align 4
  %exitcond.not.i = icmp eq i64 %indvars.iv.next.i, 227
  br i1 %exitcond.not.i, label %.lr.ph.preheader.i, label %24

.lr.ph.i:                                         ; preds = %.lr.ph.i, %.lr.ph.preheader.i
  %40 = phi i32 [ %.pre57.i, %.lr.ph.preheader.i ], [ %43, %.lr.ph.i ]
  %indvars.iv53.i = phi i64 [ 227, %.lr.ph.preheader.i ], [ %indvars.iv.next54.i, %.lr.ph.i ]
  %41 = getelementptr inbounds i32, ptr %5, i64 %indvars.iv53.i
  %indvars.iv.next54.i = add nuw nsw i64 %indvars.iv53.i, 1
  %42 = getelementptr inbounds i32, ptr %5, i64 %indvars.iv.next54.i
  %43 = load i32, ptr %42, align 4
  %44 = and i32 %43, 2147483646
  %45 = and i32 %40, -2147483648
  %46 = or disjoint i32 %44, %45
  %47 = lshr exact i32 %46, 1
  %48 = and i32 %43, 1
  %49 = icmp eq i32 %48, 0
  %50 = select i1 %49, i32 0, i32 -1727483681
  %51 = getelementptr i8, ptr %41, i64 -908
  %52 = load i32, ptr %51, align 4
  %53 = xor i32 %50, %52
  %54 = xor i32 %53, %47
  store i32 %54, ptr %41, align 4
  %exitcond56.not.i = icmp eq i64 %indvars.iv.next54.i, 623
  br i1 %exitcond56.not.i, label %._crit_edge.i, label %.lr.ph.i

._crit_edge.i:                                    ; preds = %.lr.ph.i
  %55 = load i32, ptr %16, align 8
  %56 = load i32, ptr %5, align 4
  %57 = and i32 %56, 2147483646
  %58 = and i32 %55, -2147483648
  %59 = or disjoint i32 %57, %58
  %60 = lshr exact i32 %59, 1
  %61 = and i32 %56, 1
  %62 = icmp eq i32 %61, 0
  %63 = select i1 %62, i32 0, i32 -1727483681
  %64 = load i32, ptr %17, align 4
  %65 = xor i32 %63, %64
  %66 = xor i32 %65, %60
  store i32 %66, ptr %16, align 8
  br label %MT_getnext.exit

MT_getnext.exit:                                  ; preds = %18, %._crit_edge.i
  %.pre.i21 = phi i32 [ %56, %._crit_edge.i ], [ %.pre.i, %18 ]
  %67 = phi i32 [ 624, %._crit_edge.i ], [ %22, %18 ]
  %68 = phi ptr [ %5, %._crit_edge.i ], [ %20, %18 ]
  %69 = getelementptr inbounds i8, ptr %68, i64 4
  store ptr %69, ptr %4, align 8
  %70 = load i32, ptr %68, align 4
  %71 = lshr i32 %70, 11
  %72 = xor i32 %71, %70
  %73 = shl i32 %72, 7
  %74 = and i32 %73, -1658038656
  %75 = xor i32 %74, %72
  %76 = shl i32 %75, 15
  %77 = and i32 %76, 130023424
  %78 = xor i32 %77, %75
  %79 = lshr i32 %78, 19
  %80 = lshr i32 %75, 1
  %81 = xor i32 %79, %80
  %82 = trunc i32 %81 to i8
  %83 = getelementptr inbounds i8, ptr %.018, i64 1
  %84 = load i8, ptr %.018, align 1
  %85 = xor i8 %84, %82
  store i8 %85, ptr %.018, align 1
  %.not = icmp eq i32 %21, 0
  br i1 %.not, label %._crit_edge, label %18

._crit_edge:                                      ; preds = %MT_getnext.exit, %14
  ret void
}